; ModuleID = '14/1146.c'
source_filename = "14/1146.c"
target datalayout = "e-m:e-p270:32:32-p271:32:32-p272:64:64-i64:64-f80:128-n8:16:32:64-S128"
target triple = "x86_64-pc-linux-gnu"

%struct.anon = type { i32, i32, i32, i32 }

@.str = private unnamed_addr constant [3 x i8] c"%d\00", align 1
@.str.1 = private unnamed_addr constant [9 x i8] c"%d %d %d\00", align 1
@.str.2 = private unnamed_addr constant [7 x i8] c"%d %d\0A\00", align 1

; Function Attrs: noinline nounwind uwtable
define dso_local i32 @main() #0 {
  %1 = alloca i32, align 4
  %2 = alloca i32, align 4
  %3 = alloca i32, align 4
  %4 = alloca i32, align 4
  %5 = alloca i32, align 4
  %6 = alloca i32, align 4
  %7 = alloca [100000 x %struct.anon], align 16
  store i32 0, i32* %1, align 4
  %8 = call i32 (i8*, ...) @__isoc99_scanf(i8* getelementptr inbounds ([3 x i8], [3 x i8]* @.str, i64 0, i64 0), i32* %2)
  store i32 0, i32* %3, align 4
  br label %9

9:                                                ; preds = %42, %0
  %10 = load i32, i32* %3, align 4
  %11 = load i32, i32* %2, align 4
  %12 = icmp slt i32 %10, %11
  br i1 %12, label %13, label %45

13:                                               ; preds = %9
  %14 = load i32, i32* %3, align 4
  %15 = sext i32 %14 to i64
  %16 = getelementptr inbounds [100000 x %struct.anon], [100000 x %struct.anon]* %7, i64 0, i64 %15
  %17 = getelementptr inbounds %struct.anon, %struct.anon* %16, i32 0, i32 0
  %18 = load i32, i32* %3, align 4
  %19 = sext i32 %18 to i64
  %20 = getelementptr inbounds [100000 x %struct.anon], [100000 x %struct.anon]* %7, i64 0, i64 %19
  %21 = getelementptr inbounds %struct.anon, %struct.anon* %20, i32 0, i32 1
  %22 = load i32, i32* %3, align 4
  %23 = sext i32 %22 to i64
  %24 = getelementptr inbounds [100000 x %struct.anon], [100000 x %struct.anon]* %7, i64 0, i64 %23
  %25 = getelementptr inbounds %struct.anon, %struct.anon* %24, i32 0, i32 2
  %26 = call i32 (i8*, ...) @__isoc99_scanf(i8* getelementptr inbounds ([9 x i8], [9 x i8]* @.str.1, i64 0, i64 0), i32* %17, i32* %21, i32* %25)
  %27 = load i32, i32* %3, align 4
  %28 = sext i32 %27 to i64
  %29 = getelementptr inbounds [100000 x %struct.anon], [100000 x %struct.anon]* %7, i64 0, i64 %28
  %30 = getelementptr inbounds %struct.anon, %struct.anon* %29, i32 0, i32 1
  %31 = load i32, i32* %30, align 4
  %32 = load i32, i32* %3, align 4
  %33 = sext i32 %32 to i64
  %34 = getelementptr inbounds [100000 x %struct.anon], [100000 x %struct.anon]* %7, i64 0, i64 %33
  %35 = getelementptr inbounds %struct.anon, %struct.anon* %34, i32 0, i32 2
  %36 = load i32, i32* %35, align 8
  %37 = add nsw i32 %31, %36
  %38 = load i32, i32* %3, align 4
  %39 = sext i32 %38 to i64
  %40 = getelementptr inbounds [100000 x %struct.anon], [100000 x %struct.anon]* %7, i64 0, i64 %39
  %41 = getelementptr inbounds %struct.anon, %struct.anon* %40, i32 0, i32 3
  store i32 %37, i32* %41, align 4
  br label %42

42:                                               ; preds = %13
  %43 = load i32, i32* %3, align 4
  %44 = add nsw i32 %43, 1
  store i32 %44, i32* %3, align 4
  br label %9

45:                                               ; preds = %9
  %46 = load i32, i32* %2, align 4
  store i32 %46, i32* %4, align 4
  %47 = load i32, i32* %2, align 4
  store i32 %47, i32* %5, align 4
  %48 = load i32, i32* %2, align 4
  store i32 %48, i32* %6, align 4
  %49 = load i32, i32* %2, align 4
  %50 = sext i32 %49 to i64
  %51 = getelementptr inbounds [100000 x %struct.anon], [100000 x %struct.anon]* %7, i64 0, i64 %50
  %52 = getelementptr inbounds %struct.anon, %struct.anon* %51, i32 0, i32 3
  store i32 -100, i32* %52, align 4
  store i32 0, i32* %3, align 4
  br label %53

53:                                               ; preds = %74, %45
  %54 = load i32, i32* %3, align 4
  %55 = load i32, i32* %2, align 4
  %56 = icmp slt i32 %54, %55
  br i1 %56, label %57, label %77

57:                                               ; preds = %53
  %58 = load i32, i32* %4, align 4
  %59 = sext i32 %58 to i64
  %60 = getelementptr inbounds [100000 x %struct.anon], [100000 x %struct.anon]* %7, i64 0, i64 %59
  %61 = getelementptr inbounds %struct.anon, %struct.anon* %60, i32 0, i32 3
  %62 = load i32, i32* %61, align 4
  %63 = load i32, i32* %3, align 4
  %64 = sext i32 %63 to i64
  %65 = getelementptr inbounds [100000 x %struct.anon], [100000 x %struct.anon]* %7, i64 0, i64 %64
  %66 = getelementptr inbounds %struct.anon, %struct.anon* %65, i32 0, i32 3
  %67 = load i32, i32* %66, align 4
  %68 = icmp sge i32 %62, %67
  br i1 %68, label %69, label %71

69:                                               ; preds = %57
  %70 = load i32, i32* %4, align 4
  store i32 %70, i32* %4, align 4
  br label %73

71:                                               ; preds = %57
  %72 = load i32, i32* %3, align 4
  store i32 %72, i32* %4, align 4
  br label %73

73:                                               ; preds = %71, %69
  br label %74

74:                                               ; preds = %73
  %75 = load i32, i32* %3, align 4
  %76 = add nsw i32 %75, 1
  store i32 %76, i32* %3, align 4
  br label %53

77:                                               ; preds = %53
  store i32 0, i32* %3, align 4
  br label %78

78:                                               ; preds = %105, %77
  %79 = load i32, i32* %3, align 4
  %80 = load i32, i32* %2, align 4
  %81 = icmp slt i32 %79, %80
  br i1 %81, label %82, label %108

82:                                               ; preds = %78
  %83 = load i32, i32* %3, align 4
  %84 = load i32, i32* %4, align 4
  %85 = icmp ne i32 %83, %84
  br i1 %85, label %86, label %103

86:                                               ; preds = %82
  %87 = load i32, i32* %5, align 4
  %88 = sext i32 %87 to i64
  %89 = getelementptr inbounds [100000 x %struct.anon], [100000 x %struct.anon]* %7, i64 0, i64 %88
  %90 = getelementptr inbounds %struct.anon, %struct.anon* %89, i32 0, i32 3
  %91 = load i32, i32* %90, align 4
  %92 = load i32, i32* %3, align 4
  %93 = sext i32 %92 to i64
  %94 = getelementptr inbounds [100000 x %struct.anon], [100000 x %struct.anon]* %7, i64 0, i64 %93
  %95 = getelementptr inbounds %struct.anon, %struct.anon* %94, i32 0, i32 3
  %96 = load i32, i32* %95, align 4
  %97 = icmp sge i32 %91, %96
  br i1 %97, label %98, label %100

98:                                               ; preds = %86
  %99 = load i32, i32* %5, align 4
  store i32 %99, i32* %5, align 4
  br label %102

100:                                              ; preds = %86
  %101 = load i32, i32* %3, align 4
  store i32 %101, i32* %5, align 4
  br label %102

102:                                              ; preds = %100, %98
  br label %104

103:                                              ; preds = %82
  br label %104

104:                                              ; preds = %103, %102
  br label %105

105:                                              ; preds = %104
  %106 = load i32, i32* %3, align 4
  %107 = add nsw i32 %106, 1
  store i32 %107, i32* %3, align 4
  br label %78

108:                                              ; preds = %78
  store i32 0, i32* %3, align 4
  br label %109

109:                                              ; preds = %143, %108
  %110 = load i32, i32* %3, align 4
  %111 = load i32, i32* %2, align 4
  %112 = icmp slt i32 %110, %111
  br i1 %112, label %113, label %146

113:                                              ; preds = %109
  %114 = load i32, i32* %3, align 4
  %115 = load i32, i32* %5, align 4
  %116 = icmp ne i32 %114, %115
  %117 = zext i1 %116 to i32
  %118 = load i32, i32* %3, align 4
  %119 = load i32, i32* %4, align 4
  %120 = icmp ne i32 %118, %119
  %121 = zext i1 %120 to i32
  %122 = and i32 %117, %121
  %123 = icmp ne i32 %122, 0
  br i1 %123, label %124, label %141

124:                                              ; preds = %113
  %125 = load i32, i32* %6, align 4
  %126 = sext i32 %125 to i64
  %127 = getelementptr inbounds [100000 x %struct.anon], [100000 x %struct.anon]* %7, i64 0, i64 %126
  %128 = getelementptr inbounds %struct.anon, %struct.anon* %127, i32 0, i32 3
  %129 = load i32, i32* %128, align 4
  %130 = load i32, i32* %3, align 4
  %131 = sext i32 %130 to i64
  %132 = getelementptr inbounds [100000 x %struct.anon], [100000 x %struct.anon]* %7, i64 0, i64 %131
  %133 = getelementptr inbounds %struct.anon, %struct.anon* %132, i32 0, i32 3
  %134 = load i32, i32* %133, align 4
  %135 = icmp sge i32 %129, %134
  br i1 %135, label %136, label %138

136:                                              ; preds = %124
  %137 = load i32, i32* %6, align 4
  store i32 %137, i32* %6, align 4
  br label %140

138:                                              ; preds = %124
  %139 = load i32, i32* %3, align 4
  store i32 %139, i32* %6, align 4
  br label %140

140:                                              ; preds = %138, %136
  br label %142

141:                                              ; preds = %113
  br label %142

142:                                              ; preds = %141, %140
  br label %143

143:                                              ; preds = %142
  %144 = load i32, i32* %3, align 4
  %145 = add nsw i32 %144, 1
  store i32 %145, i32* %3, align 4
  br label %109

146:                                              ; preds = %109
  %147 = load i32, i32* %4, align 4
  %148 = sext i32 %147 to i64
  %149 = getelementptr inbounds [100000 x %struct.anon], [100000 x %struct.anon]* %7, i64 0, i64 %148
  %150 = getelementptr inbounds %struct.anon, %struct.anon* %149, i32 0, i32 0
  %151 = load i32, i32* %150, align 16
  %152 = load i32, i32* %4, align 4
  %153 = sext i32 %152 to i64
  %154 = getelementptr inbounds [100000 x %struct.anon], [100000 x %struct.anon]* %7, i64 0, i64 %153
  %155 = getelementptr inbounds %struct.anon, %struct.anon* %154, i32 0, i32 3
  %156 = load i32, i32* %155, align 4
  %157 = call i32 (i8*, ...) @printf(i8* getelementptr inbounds ([7 x i8], [7 x i8]* @.str.2, i64 0, i64 0), i32 %151, i32 %156)
  %158 = load i32, i32* %5, align 4
  %159 = sext i32 %158 to i64
  %160 = getelementptr inbounds [100000 x %struct.anon], [100000 x %struct.anon]* %7, i64 0, i64 %159
  %161 = getelementptr inbounds %struct.anon, %struct.anon* %160, i32 0, i32 0
  %162 = load i32, i32* %161, align 16
  %163 = load i32, i32* %5, align 4
  %164 = sext i32 %163 to i64
  %165 = getelementptr inbounds [100000 x %struct.anon], [100000 x %struct.anon]* %7, i64 0, i64 %164
  %166 = getelementptr inbounds %struct.anon, %struct.anon* %165, i32 0, i32 3
  %167 = load i32, i32* %166, align 4
  %168 = call i32 (i8*, ...) @printf(i8* getelementptr inbounds ([7 x i8], [7 x i8]* @.str.2, i64 0, i64 0), i32 %162, i32 %167)
  %169 = load i32, i32* %6, align 4
  %170 = sext i32 %169 to i64
  %171 = getelementptr inbounds [100000 x %struct.anon], [100000 x %struct.anon]* %7, i64 0, i64 %170
  %172 = getelementptr inbounds %struct.anon, %struct.anon* %171, i32 0, i32 0
  %173 = load i32, i32* %172, align 16
  %174 = load i32, i32* %6, align 4
  %175 = sext i32 %174 to i64
  %176 = getelementptr inbounds [100000 x %struct.anon], [100000 x %struct.anon]* %7, i64 0, i64 %175
  %177 = getelementptr inbounds %struct.anon, %struct.anon* %176, i32 0, i32 3
  %178 = load i32, i32* %177, align 4
  %179 = call i32 (i8*, ...) @printf(i8* getelementptr inbounds ([7 x i8], [7 x i8]* @.str.2, i64 0, i64 0), i32 %173, i32 %178)
  ret i32 0
}

declare dso_local i32 @__isoc99_scanf(i8*, ...) #1

declare dso_local i32 @printf(i8*, ...) #1


!llvm.module.flags = !{!0}
!llvm.ident = !{!1}

!0 = !{i32 1, !"wchar_size", i32 4}
!1 = !{!"clang version 10.0.0-4ubuntu1 "}
